target datalayout = "e-m:e-p270:32:32-p271:32:32-p272:64:64-i64:64-i128:128-f80:128-n8:16:32:64-S128"
target triple = "x86_64-pc-linux-gnu"

%struct.APVRawFrameHeader = type { %struct.APVRawFrameInfo, i8, i8, i8, i8, i8, i8, i8, %struct.APVRawQuantizationMatrix, %struct.APVRawTileInfo, i8 }
%struct.APVRawFrameInfo = type { i8, i8, i8, i8, i32, i32, i8, i8, i8, i8 }
%struct.APVRawQuantizationMatrix = type { [4 x [8 x [8 x i8]]] }
%struct.APVRawTileInfo = type { i32, i32, i8, [400 x i32] }
%struct.APVDerivedTileInfo = type { i8, i8, i16, [21 x i16], [21 x i16] }

@.str = private unnamed_addr constant [30 x i8] c"Assertion %s failed at %s:%d\0A\00", align 1
@.str.3 = private unnamed_addr constant [21 x i8] c"libavcodec/cbs_apv.c\00", align 1
@.str.36 = private unnamed_addr constant [23 x i8] c"i <= APV_MAX_TILE_COLS\00", align 1
@.str.37 = private unnamed_addr constant [22 x i8] c"i < APV_MAX_TILE_ROWS\00", align 1
@.str.38 = private unnamed_addr constant [23 x i8] c"i <= APV_MAX_TILE_ROWS\00", align 1

; Function Attrs: nounwind uwtable
define internal void @cbs_apv_derive_tile_info(ptr noundef %0, ptr noundef %1) #0 {
  %3 = alloca ptr, align 8
  %4 = alloca ptr, align 8
  %5 = alloca i32, align 4
  %6 = alloca i32, align 4
  %7 = alloca i32, align 4
  %8 = alloca i32, align 4
  store ptr %0, ptr %3, align 8, !tbaa !150
  store ptr %1, ptr %4, align 8, !tbaa !104
  call void @llvm.lifetime.start.p0(i64 4, ptr %5) #8
  %9 = load ptr, ptr %4, align 8, !tbaa !104
  %10 = getelementptr inbounds nuw %struct.APVRawFrameHeader, ptr %9, i32 0, i32 0
  %11 = getelementptr inbounds nuw %struct.APVRawFrameInfo, ptr %10, i32 0, i32 4
  %12 = load i32, ptr %11, align 4, !tbaa !143
  %13 = add i32 %12, 15
  %14 = udiv i32 %13, 16
  store i32 %14, ptr %5, align 4, !tbaa !11
  call void @llvm.lifetime.start.p0(i64 4, ptr %6) #8
  %15 = load ptr, ptr %4, align 8, !tbaa !104
  %16 = getelementptr inbounds nuw %struct.APVRawFrameHeader, ptr %15, i32 0, i32 0
  %17 = getelementptr inbounds nuw %struct.APVRawFrameInfo, ptr %16, i32 0, i32 5
  %18 = load i32, ptr %17, align 4, !tbaa !144
  %19 = add i32 %18, 15
  %20 = udiv i32 %19, 16
  store i32 %20, ptr %6, align 4, !tbaa !11
  call void @llvm.lifetime.start.p0(i64 4, ptr %7) #8
  call void @llvm.lifetime.start.p0(i64 4, ptr %8) #8
  store i32 0, ptr %7, align 4, !tbaa !11
  store i32 0, ptr %8, align 4, !tbaa !11
  br label %21

21:                                               ; preds = %40, %2
  %22 = load i32, ptr %7, align 4, !tbaa !11
  %23 = load i32, ptr %5, align 4, !tbaa !11
  %24 = icmp slt i32 %22, %23
  br i1 %24, label %25, label %43

25:                                               ; preds = %21
  %26 = load i32, ptr %7, align 4, !tbaa !11
  %27 = mul nsw i32 %26, 16
  %28 = trunc i32 %27 to i16
  %29 = load ptr, ptr %3, align 8, !tbaa !150
  %30 = getelementptr inbounds nuw %struct.APVDerivedTileInfo, ptr %29, i32 0, i32 3
  %31 = load i32, ptr %8, align 4, !tbaa !11
  %32 = sext i32 %31 to i64
  %33 = getelementptr inbounds [21 x i16], ptr %30, i64 0, i64 %32
  store i16 %28, ptr %33, align 2, !tbaa !152
  %34 = load ptr, ptr %4, align 8, !tbaa !104
  %35 = getelementptr inbounds nuw %struct.APVRawFrameHeader, ptr %34, i32 0, i32 9
  %36 = getelementptr inbounds nuw %struct.APVRawTileInfo, ptr %35, i32 0, i32 0
  %37 = load i32, ptr %36, align 4, !tbaa !153
  %38 = load i32, ptr %7, align 4, !tbaa !11
  %39 = add i32 %38, %37
  store i32 %39, ptr %7, align 4, !tbaa !11
  br label %40

40:                                               ; preds = %25
  %41 = load i32, ptr %8, align 4, !tbaa !11
  %42 = add nsw i32 %41, 1
  store i32 %42, ptr %8, align 4, !tbaa !11
  br label %21, !llvm.loop !154

43:                                               ; preds = %21
  br label %44

44:                                               ; preds = %43
  %45 = load i32, ptr %8, align 4, !tbaa !11
  %46 = icmp sle i32 %45, 20
  br i1 %46, label %48, label %47

47:                                               ; preds = %44
  call void (ptr, i32, ptr, ...) @av_log(ptr noundef null, i32 noundef 0, ptr noundef @.str, ptr noundef @.str.36, ptr noundef @.str.3, i32 noundef 52)
  call void @abort() #10
  unreachable

48:                                               ; preds = %44
  br label %49

49:                                               ; preds = %48
  br label %50

50:                                               ; preds = %49
  %51 = load i32, ptr %5, align 4, !tbaa !11
  %52 = mul nsw i32 %51, 16
  %53 = trunc i32 %52 to i16
  %54 = load ptr, ptr %3, align 8, !tbaa !150
  %55 = getelementptr inbounds nuw %struct.APVDerivedTileInfo, ptr %54, i32 0, i32 3
  %56 = load i32, ptr %8, align 4, !tbaa !11
  %57 = sext i32 %56 to i64
  %58 = getelementptr inbounds [21 x i16], ptr %55, i64 0, i64 %57
  store i16 %53, ptr %58, align 2, !tbaa !152
  %59 = load i32, ptr %8, align 4, !tbaa !11
  %60 = trunc i32 %59 to i8
  %61 = load ptr, ptr %3, align 8, !tbaa !150
  %62 = getelementptr inbounds nuw %struct.APVDerivedTileInfo, ptr %61, i32 0, i32 0
  store i8 %60, ptr %62, align 2, !tbaa !155
  store i32 0, ptr %7, align 4, !tbaa !11
  store i32 0, ptr %8, align 4, !tbaa !11
  br label %63

63:                                               ; preds = %89, %50
  %64 = load i32, ptr %7, align 4, !tbaa !11
  %65 = load i32, ptr %6, align 4, !tbaa !11
  %66 = icmp slt i32 %64, %65
  br i1 %66, label %67, label %92

67:                                               ; preds = %63
  br label %68

68:                                               ; preds = %67
  %69 = load i32, ptr %8, align 4, !tbaa !11
  %70 = icmp slt i32 %69, 20
  br i1 %70, label %72, label %71

71:                                               ; preds = %68
  call void (ptr, i32, ptr, ...) @av_log(ptr noundef null, i32 noundef 0, ptr noundef @.str, ptr noundef @.str.37, ptr noundef @.str.3, i32 noundef 58)
  call void @abort() #10
  unreachable

72:                                               ; preds = %68
  br label %73

73:                                               ; preds = %72
  br label %74

74:                                               ; preds = %73
  %75 = load i32, ptr %7, align 4, !tbaa !11
  %76 = mul nsw i32 %75, 16
  %77 = trunc i32 %76 to i16
  %78 = load ptr, ptr %3, align 8, !tbaa !150
  %79 = getelementptr inbounds nuw %struct.APVDerivedTileInfo, ptr %78, i32 0, i32 4
  %80 = load i32, ptr %8, align 4, !tbaa !11
  %81 = sext i32 %80 to i64
  %82 = getelementptr inbounds [21 x i16], ptr %79, i64 0, i64 %81
  store i16 %77, ptr %82, align 2, !tbaa !152
  %83 = load ptr, ptr %4, align 8, !tbaa !104
  %84 = getelementptr inbounds nuw %struct.APVRawFrameHeader, ptr %83, i32 0, i32 9
  %85 = getelementptr inbounds nuw %struct.APVRawTileInfo, ptr %84, i32 0, i32 1
  %86 = load i32, ptr %85, align 4, !tbaa !156
  %87 = load i32, ptr %7, align 4, !tbaa !11
  %88 = add i32 %87, %86
  store i32 %88, ptr %7, align 4, !tbaa !11
  br label %89

89:                                               ; preds = %74
  %90 = load i32, ptr %8, align 4, !tbaa !11
  %91 = add nsw i32 %90, 1
  store i32 %91, ptr %8, align 4, !tbaa !11
  br label %63, !llvm.loop !157

92:                                               ; preds = %63
  br label %93

93:                                               ; preds = %92
  %94 = load i32, ptr %8, align 4, !tbaa !11
  %95 = icmp sle i32 %94, 20
  br i1 %95, label %97, label %96

96:                                               ; preds = %93
  call void (ptr, i32, ptr, ...) @av_log(ptr noundef null, i32 noundef 0, ptr noundef @.str, ptr noundef @.str.38, ptr noundef @.str.3, i32 noundef 62)
  call void @abort() #10
  unreachable

97:                                               ; preds = %93
  br label %98

98:                                               ; preds = %97
  br label %99

99:                                               ; preds = %98
  %100 = load i32, ptr %6, align 4, !tbaa !11
  %101 = mul nsw i32 %100, 16
  %102 = trunc i32 %101 to i16
  %103 = load ptr, ptr %3, align 8, !tbaa !150
  %104 = getelementptr inbounds nuw %struct.APVDerivedTileInfo, ptr %103, i32 0, i32 4
  %105 = load i32, ptr %8, align 4, !tbaa !11
  %106 = sext i32 %105 to i64
  %107 = getelementptr inbounds [21 x i16], ptr %104, i64 0, i64 %106
  store i16 %102, ptr %107, align 2, !tbaa !152
  %108 = load i32, ptr %8, align 4, !tbaa !11
  %109 = trunc i32 %108 to i8
  %110 = load ptr, ptr %3, align 8, !tbaa !150
  %111 = getelementptr inbounds nuw %struct.APVDerivedTileInfo, ptr %110, i32 0, i32 1
  store i8 %109, ptr %111, align 1, !tbaa !158
  %112 = load ptr, ptr %3, align 8, !tbaa !150
  %113 = getelementptr inbounds nuw %struct.APVDerivedTileInfo, ptr %112, i32 0, i32 0
  %114 = load i8, ptr %113, align 2, !tbaa !155
  %115 = zext i8 %114 to i32
  %116 = load ptr, ptr %3, align 8, !tbaa !150
  %117 = getelementptr inbounds nuw %struct.APVDerivedTileInfo, ptr %116, i32 0, i32 1
  %118 = load i8, ptr %117, align 1, !tbaa !158
  %119 = zext i8 %118 to i32
  %120 = mul nsw i32 %115, %119
  %121 = trunc i32 %120 to i16
  %122 = load ptr, ptr %3, align 8, !tbaa !150
  %123 = getelementptr inbounds nuw %struct.APVDerivedTileInfo, ptr %122, i32 0, i32 2
  store i16 %121, ptr %123, align 2, !tbaa !159
  call void @llvm.lifetime.end.p0(i64 4, ptr %8) #8
  call void @llvm.lifetime.end.p0(i64 4, ptr %7) #8
  call void @llvm.lifetime.end.p0(i64 4, ptr %6) #8
  call void @llvm.lifetime.end.p0(i64 4, ptr %5) #8
  ret void
}