; Function Attrs: nounwind uwtable
define internal fastcc void @cbs_apv_derive_tile_info(ptr noundef writeonly captures(none) %0, ptr noundef readonly captures(none) %1) unnamed_addr #0 {
  %3 = getelementptr inbounds nuw i8, ptr %1, i64 4
  %4 = load i32, ptr %3, align 4, !tbaa !62
  %5 = add i32 %4, 15
  %6 = lshr i32 %5, 4
  %7 = getelementptr inbounds nuw i8, ptr %1, i64 8
  %8 = load i32, ptr %7, align 4, !tbaa !63
  %9 = add i32 %8, 15
  %10 = lshr i32 %9, 4
  %.not = icmp ult i32 %5, 16
  br i1 %.not, label %._crit_edge.thread, label %.lr.ph

.lr.ph:                                           ; preds = %2
  %11 = getelementptr inbounds nuw i8, ptr %0, i64 4
  %12 = getelementptr inbounds nuw i8, ptr %1, i64 280
  %13 = load i32, ptr %12, align 4, !tbaa !172
  br label %14

14:                                               ; preds = %.lr.ph, %14
  %indvars.iv = phi i64 [ 0, %.lr.ph ], [ %indvars.iv.next, %14 ]
  %.03338 = phi i32 [ 0, %.lr.ph ], [ %17, %14 ]
  %.033.tr = trunc i32 %.03338 to i16
  %15 = shl i16 %.033.tr, 4
  %16 = getelementptr inbounds nuw [21 x i16], ptr %11, i64 0, i64 %indvars.iv
  store i16 %15, ptr %16, align 2, !tbaa !108
  %17 = add i32 %13, %.03338
  %indvars.iv.next = add nuw nsw i64 %indvars.iv, 1
  %18 = icmp slt i32 %17, %6
  br i1 %18, label %14, label %._crit_edge, !llvm.loop !173

._crit_edge:                                      ; preds = %14
  %19 = trunc nuw i64 %indvars.iv.next to i32
  %20 = icmp samesign ult i64 %indvars.iv, 20
  br i1 %20, label %._crit_edge.thread, label %21

21:                                               ; preds = %._crit_edge
  tail call void (ptr, i32, ptr, ...) @av_log(ptr noundef null, i32 noundef 0, ptr noundef nonnull @.str, ptr noundef nonnull @.str.36, ptr noundef nonnull @.str.3, i32 noundef 52) #7
  tail call void @abort() #8
  unreachable

._crit_edge.thread:                               ; preds = %2, %._crit_edge
  %.0.lcssa53 = phi i32 [ %19, %._crit_edge ], [ 0, %2 ]
  %22 = trunc i32 %5 to i16
  %23 = and i16 %22, -16
  %24 = getelementptr inbounds nuw i8, ptr %0, i64 4
  %25 = zext nneg i32 %.0.lcssa53 to i64
  %26 = getelementptr inbounds nuw [21 x i16], ptr %24, i64 0, i64 %25
  store i16 %23, ptr %26, align 2, !tbaa !108
  %27 = trunc nuw nsw i32 %.0.lcssa53 to i8
  store i8 %27, ptr %0, align 2, !tbaa !174
  %.not46 = icmp ult i32 %9, 16
  br i1 %.not46, label %._crit_edge44, label %.lr.ph43

.lr.ph43:                                         ; preds = %._crit_edge.thread
  %28 = getelementptr inbounds nuw i8, ptr %0, i64 46
  %29 = getelementptr inbounds nuw i8, ptr %1, i64 284
  %30 = load i32, ptr %29, align 4, !tbaa !175
  br label %31

31:                                               ; preds = %.lr.ph43, %33
  %indvars.iv49 = phi i64 [ 0, %.lr.ph43 ], [ %indvars.iv.next50, %33 ]
  %.13440 = phi i32 [ 0, %.lr.ph43 ], [ %36, %33 ]
  %exitcond.not = icmp eq i64 %indvars.iv49, 20
  br i1 %exitcond.not, label %32, label %33

32:                                               ; preds = %31
  tail call void (ptr, i32, ptr, ...) @av_log(ptr noundef null, i32 noundef 0, ptr noundef nonnull @.str, ptr noundef nonnull @.str.37, ptr noundef nonnull @.str.3, i32 noundef 58) #7
  tail call void @abort() #8
  unreachable

33:                                               ; preds = %31
  %.134.tr = trunc i32 %.13440 to i16
  %34 = shl i16 %.134.tr, 4
  %35 = getelementptr inbounds nuw [21 x i16], ptr %28, i64 0, i64 %indvars.iv49
  store i16 %34, ptr %35, align 2, !tbaa !108
  %36 = add i32 %30, %.13440
  %indvars.iv.next50 = add nuw nsw i64 %indvars.iv49, 1
  %37 = icmp slt i32 %36, %10
  br i1 %37, label %31, label %._crit_edge44.loopexit, !llvm.loop !176

._crit_edge44.loopexit:                           ; preds = %33
  %38 = trunc nuw nsw i64 %indvars.iv.next50 to i32
  br label %._crit_edge44

._crit_edge44:                                    ; preds = %._crit_edge44.loopexit, %._crit_edge.thread
  %.1.lcssa = phi i32 [ 0, %._crit_edge.thread ], [ %38, %._crit_edge44.loopexit ]
  %39 = trunc i32 %9 to i16
  %40 = and i16 %39, -16
  %41 = getelementptr inbounds nuw i8, ptr %0, i64 46
  %42 = zext nneg i32 %.1.lcssa to i64
  %43 = getelementptr inbounds nuw [21 x i16], ptr %41, i64 0, i64 %42
  store i16 %40, ptr %43, align 2, !tbaa !108
  %44 = trunc nuw nsw i32 %.1.lcssa to i8
  %45 = getelementptr inbounds nuw i8, ptr %0, i64 1
  store i8 %44, ptr %45, align 1, !tbaa !177
  %46 = mul nuw nsw i32 %.1.lcssa, %.0.lcssa53
  %47 = trunc nuw nsw i32 %46 to i16
  %48 = getelementptr inbounds nuw i8, ptr %0, i64 2
  store i16 %47, ptr %48, align 2, !tbaa !178
  ret void
}